target datalayout = "e-m:e-p270:32:32-p271:32:32-p272:64:64-i64:64-i128:128-f80:128-n8:16:32:64-S128"
target triple = "x86_64-pc-linux-gnu"

%struct.darktable_t = type { %struct.dt_codepath_t, i32, i32, ptr, ptr, ptr, ptr, ptr, ptr, ptr, ptr, ptr, ptr, ptr, ptr, ptr, ptr, ptr, ptr, ptr, ptr, ptr, ptr, ptr, ptr, ptr, ptr, ptr, ptr, ptr, [64 x %struct.dt_pthread_mutex_t], %struct.dt_pthread_mutex_t, %struct.dt_pthread_mutex_t, %struct.dt_pthread_mutex_t, %struct.dt_pthread_mutex_t, %struct.dt_pthread_mutex_t, ptr, ptr, ptr, ptr, ptr, ptr, ptr, ptr, ptr, ptr, ptr, ptr, ptr, %struct.dt_lua_state_t, ptr, double, ptr, i32, [47 x i32], i32, i32, ptr, ptr, %struct.dt_sys_resources_t, %struct.dt_backthumb_t, %struct.dt_gimp_t }
%struct.dt_codepath_t = type { i8, [3 x i8] }
%struct.dt_pthread_mutex_t = type { %union.pthread_mutex_t }
%union.pthread_mutex_t = type { %struct.__pthread_mutex_s }
%struct.__pthread_mutex_s = type { i32, i32, i32, i32, i32, i16, i16, %struct.__pthread_internal_list }
%struct.__pthread_internal_list = type { ptr, ptr }
%struct.dt_lua_state_t = type { i32 }
%struct.dt_sys_resources_t = type { i64, i64, ptr, ptr, i32 }
%struct.dt_backthumb_t = type { double, double, i32, i32, i32, i32 }
%struct.dt_gimp_t = type { i32, ptr, ptr, i32, i32 }
%struct.dt_colorspaces_t = type { ptr, %union.pthread_rwlock_t, ptr, ptr, i32, ptr, ptr, i32, i32, i32, i32, i32, [512 x i8], [512 x i8], [512 x i8], [512 x i8], i32, i32, i32, i32, ptr, ptr, ptr, ptr }
%union.pthread_rwlock_t = type { %struct.__pthread_rwlock_arch_t }
%struct.__pthread_rwlock_arch_t = type { i32, i32, i32, i32, i32, i32, i32, i32, i8, [7 x i8], i64, i32 }

@darktable = external global %struct.darktable_t, align 8

; Function Attrs: nounwind uwtable
define void @dt_ioppr_get_histogram_profile_type(ptr noundef %0, ptr noundef %1) #0 {
  %3 = alloca ptr, align 8
  %4 = alloca ptr, align 8
  %5 = alloca i32, align 4
  store ptr %0, ptr %3, align 8, !tbaa !67
  store ptr %1, ptr %4, align 8, !tbaa !118
  call void @llvm.lifetime.start.p0(i64 4, ptr %5) #10
  %6 = load ptr, ptr getelementptr inbounds nuw (%struct.darktable_t, ptr @darktable, i32 0, i32 28), align 8, !tbaa !68
  %7 = getelementptr inbounds nuw %struct.dt_colorspaces_t, ptr %6, i32 0, i32 19
  %8 = load i32, ptr %7, align 8, !tbaa !137
  store i32 %8, ptr %5, align 4, !tbaa !11
  %9 = load i32, ptr %5, align 4, !tbaa !11
  %10 = icmp ne i32 %9, 0
  br i1 %10, label %16, label %11

11:                                               ; preds = %2
  %12 = load ptr, ptr getelementptr inbounds nuw (%struct.darktable_t, ptr @darktable, i32 0, i32 28), align 8, !tbaa !68
  %13 = getelementptr inbounds nuw %struct.dt_colorspaces_t, ptr %12, i32 0, i32 11
  %14 = load i32, ptr %13, align 8, !tbaa !139
  %15 = icmp eq i32 %14, 17
  br i1 %15, label %16, label %25

16:                                               ; preds = %11, %2
  %17 = load ptr, ptr getelementptr inbounds nuw (%struct.darktable_t, ptr @darktable, i32 0, i32 28), align 8, !tbaa !68
  %18 = getelementptr inbounds nuw %struct.dt_colorspaces_t, ptr %17, i32 0, i32 10
  %19 = load i32, ptr %18, align 4, !tbaa !140
  %20 = load ptr, ptr %3, align 8, !tbaa !67
  store i32 %19, ptr %20, align 4, !tbaa !11
  %21 = load ptr, ptr getelementptr inbounds nuw (%struct.darktable_t, ptr @darktable, i32 0, i32 28), align 8, !tbaa !68
  %22 = getelementptr inbounds nuw %struct.dt_colorspaces_t, ptr %21, i32 0, i32 14
  %23 = getelementptr inbounds [512 x i8], ptr %22, i64 0, i64 0
  %24 = load ptr, ptr %4, align 8, !tbaa !118
  store ptr %23, ptr %24, align 8, !tbaa !28
  br label %54

25:                                               ; preds = %11
  %26 = load ptr, ptr getelementptr inbounds nuw (%struct.darktable_t, ptr @darktable, i32 0, i32 28), align 8, !tbaa !68
  %27 = getelementptr inbounds nuw %struct.dt_colorspaces_t, ptr %26, i32 0, i32 11
  %28 = load i32, ptr %27, align 8, !tbaa !139
  %29 = icmp eq i32 %28, 18
  br i1 %29, label %30, label %34

30:                                               ; preds = %25
  %31 = load ptr, ptr getelementptr inbounds nuw (%struct.darktable_t, ptr @darktable, i32 0, i32 9), align 8, !tbaa !141
  %32 = load ptr, ptr %3, align 8, !tbaa !67
  %33 = load ptr, ptr %4, align 8, !tbaa !118
  call void @dt_ioppr_get_work_profile_type(ptr noundef %31, ptr noundef %32, ptr noundef %33)
  br label %53

34:                                               ; preds = %25
  %35 = load ptr, ptr getelementptr inbounds nuw (%struct.darktable_t, ptr @darktable, i32 0, i32 28), align 8, !tbaa !68
  %36 = getelementptr inbounds nuw %struct.dt_colorspaces_t, ptr %35, i32 0, i32 11
  %37 = load i32, ptr %36, align 8, !tbaa !139
  %38 = icmp eq i32 %37, 16
  br i1 %38, label %39, label %43

39:                                               ; preds = %34
  %40 = load ptr, ptr getelementptr inbounds nuw (%struct.darktable_t, ptr @darktable, i32 0, i32 9), align 8, !tbaa !141
  %41 = load ptr, ptr %3, align 8, !tbaa !67
  %42 = load ptr, ptr %4, align 8, !tbaa !118
  call void @dt_ioppr_get_export_profile_type(ptr noundef %40, ptr noundef %41, ptr noundef %42)
  br label %52

43:                                               ; preds = %34
  %44 = load ptr, ptr getelementptr inbounds nuw (%struct.darktable_t, ptr @darktable, i32 0, i32 28), align 8, !tbaa !68
  %45 = getelementptr inbounds nuw %struct.dt_colorspaces_t, ptr %44, i32 0, i32 11
  %46 = load i32, ptr %45, align 8, !tbaa !139
  %47 = load ptr, ptr %3, align 8, !tbaa !67
  store i32 %46, ptr %47, align 4, !tbaa !11
  %48 = load ptr, ptr getelementptr inbounds nuw (%struct.darktable_t, ptr @darktable, i32 0, i32 28), align 8, !tbaa !68
  %49 = getelementptr inbounds nuw %struct.dt_colorspaces_t, ptr %48, i32 0, i32 15
  %50 = getelementptr inbounds [512 x i8], ptr %49, i64 0, i64 0
  %51 = load ptr, ptr %4, align 8, !tbaa !118
  store ptr %50, ptr %51, align 8, !tbaa !28
  br label %52

52:                                               ; preds = %43, %39
  br label %53

53:                                               ; preds = %52, %30
  br label %54

54:                                               ; preds = %53, %16
  call void @llvm.lifetime.end.p0(i64 4, ptr %5) #10
  ret void
}

; Function Attrs: nounwind uwtable
define ptr @dt_ioppr_get_histogram_profile_info(ptr noundef %0) #0 {
  %2 = alloca ptr, align 8
  %3 = alloca i32, align 4
  %4 = alloca ptr, align 8
  store ptr %0, ptr %2, align 8, !tbaa !26
  call void @llvm.lifetime.start.p0(i64 4, ptr %3) #10
  call void @llvm.lifetime.start.p0(i64 8, ptr %4) #10
  call void @dt_ioppr_get_histogram_profile_type(ptr noundef %3, ptr noundef %4)
  %5 = load ptr, ptr %2, align 8, !tbaa !26
  %6 = load i32, ptr %3, align 4, !tbaa !11
  %7 = load ptr, ptr %4, align 8, !tbaa !28
  %8 = call ptr @dt_ioppr_add_profile_info_to_list(ptr noundef %5, i32 noundef %6, ptr noundef %7, i32 noundef 1)
  call void @llvm.lifetime.end.p0(i64 8, ptr %4) #10
  call void @llvm.lifetime.end.p0(i64 4, ptr %3) #10
  ret ptr %8
}