; Function Attrs: nounwind uwtable
define noundef ptr @dt_ioppr_get_histogram_profile_info(ptr noundef captures(none) %0) local_unnamed_addr #0 {
  %2 = alloca i32, align 4
  %3 = alloca ptr, align 8
  call void @llvm.lifetime.start.p0(i64 4, ptr nonnull %2) #17
  call void @llvm.lifetime.start.p0(i64 8, ptr nonnull %3) #17
  %4 = load ptr, ptr getelementptr inbounds nuw (i8, ptr @darktable, i64 216), align 8, !tbaa !25
  %5 = getelementptr inbounds nuw i8, ptr %4, i64 2184
  %6 = load i32, ptr %5, align 8, !tbaa !124
  %.not.i = icmp eq i32 %6, 0
  br i1 %.not.i, label %7, label %10

7:                                                ; preds = %1
  %8 = getelementptr inbounds nuw i8, ptr %4, i64 120
  %9 = load i32, ptr %8, align 8, !tbaa !126
  switch i32 %9, label %18 [
    i32 17, label %10
    i32 18, label %14
    i32 16, label %16
  ]

10:                                               ; preds = %7, %1
  %11 = getelementptr inbounds nuw i8, ptr %4, i64 116
  %12 = load i32, ptr %11, align 4, !tbaa !127
  store i32 %12, ptr %2, align 4, !tbaa !108
  %13 = getelementptr inbounds nuw i8, ptr %4, i64 1148
  store ptr %13, ptr %3, align 8, !tbaa !107
  br label %dt_ioppr_get_histogram_profile_type.exit

14:                                               ; preds = %7
  %15 = load ptr, ptr getelementptr inbounds nuw (i8, ptr @darktable, i64 64), align 8, !tbaa !128
  call void @dt_ioppr_get_work_profile_type(ptr noundef %15, ptr noundef nonnull %2, ptr noundef nonnull %3)
  br label %dt_ioppr_get_histogram_profile_type.exit

16:                                               ; preds = %7
  %17 = load ptr, ptr getelementptr inbounds nuw (i8, ptr @darktable, i64 64), align 8, !tbaa !128
  call void @dt_ioppr_get_export_profile_type(ptr noundef %17, ptr noundef nonnull %2, ptr noundef nonnull %3)
  br label %dt_ioppr_get_histogram_profile_type.exit

18:                                               ; preds = %7
  store i32 %9, ptr %2, align 4, !tbaa !108
  %19 = getelementptr inbounds nuw i8, ptr %4, i64 1660
  store ptr %19, ptr %3, align 8, !tbaa !107
  br label %dt_ioppr_get_histogram_profile_type.exit

dt_ioppr_get_histogram_profile_type.exit:         ; preds = %10, %14, %16, %18
  %20 = load i32, ptr %2, align 4, !tbaa !108
  %21 = load ptr, ptr %3, align 8, !tbaa !107
  %22 = tail call ptr @dt_ioppr_add_profile_info_to_list(ptr noundef %0, i32 noundef %20, ptr noundef %21, i32 noundef 1)
  call void @llvm.lifetime.end.p0(i64 8, ptr nonnull %3) #17
  call void @llvm.lifetime.end.p0(i64 4, ptr nonnull %2) #17
  ret ptr %22
}